; Function Attrs: nounwind uwtable
define internal void @keyboardHandleLeave(ptr readnone captures(none) %0, ptr readnone captures(none) %1, i32 noundef %2, ptr readnone captures(none) %3) #0 {
  %5 = alloca %struct.itimerspec, align 8
  %6 = load ptr, ptr getelementptr inbounds nuw (i8, ptr @_glfw, i64 137368), align 8, !tbaa !239
  %.not = icmp eq ptr %6, null
  br i1 %.not, label %10, label %7

7:                                                ; preds = %4
  call void @llvm.lifetime.start.p0(i64 32, ptr nonnull %5) #20
  call void @llvm.memset.p0.i64(ptr noundef nonnull align 8 dereferenceable(32) %5, i8 0, i64 32, i1 false)
  %8 = load i32, ptr getelementptr inbounds nuw (i8, ptr @_glfw, i64 134140), align 4, !tbaa !272
  %9 = call i32 @timerfd_settime(i32 noundef %8, i32 noundef 0, ptr noundef nonnull %5, ptr noundef null) #20
  store i32 %2, ptr getelementptr inbounds nuw (i8, ptr @_glfw, i64 134132), align 4, !tbaa !251
  store ptr null, ptr getelementptr inbounds nuw (i8, ptr @_glfw, i64 137368), align 8, !tbaa !239
  call void @_glfwInputWindowFocus(ptr noundef nonnull %6, i32 noundef 0) #20
  call void @llvm.lifetime.end.p0(i64 32, ptr nonnull %5) #20
  br label %10

10:                                               ; preds = %4, %7
  ret void
}